target datalayout = "e-m:e-p270:32:32-p271:32:32-p272:64:64-i64:64-i128:128-f80:128-n8:16:32:64-S128"
target triple = "x86_64-pc-linux-gnu"

%"class.icu_77::CharacterIterator" = type { %"class.icu_77::ForwardCharacterIterator", i32, i32, i32, i32 }
%"class.icu_77::ForwardCharacterIterator" = type { %"class.icu_77::UObject" }
%"class.icu_77::UObject" = type { ptr }

@_ZTVN6icu_777UObjectE = available_externally unnamed_addr constant { [5 x ptr] } { [5 x ptr] [ptr null, ptr @_ZTIN6icu_777UObjectE, ptr @_ZN6icu_777UObjectD1Ev, ptr @_ZN6icu_777UObjectD0Ev, ptr @_ZNK6icu_777UObject17getDynamicClassIDEv] }, align 8

; Function Attrs: inlinehint mustprogress nounwind uwtable
define linkonce_odr void @_ZN6icu_777UObjectC2Ev(ptr noundef nonnull align 8 dereferenceable(8) %0) unnamed_addr #4 comdat align 2 {
  %2 = alloca ptr, align 8
  store ptr %0, ptr %2, align 8, !tbaa !10
  %3 = load ptr, ptr %2, align 8
  store ptr getelementptr inbounds inrange(-16, 24) ({ [5 x ptr] }, ptr @_ZTVN6icu_777UObjectE, i32 0, i32 0, i32 2), ptr %3, align 8, !tbaa !8
  ret void
}

; Function Attrs: mustprogress nounwind uwtable
define void @_ZN6icu_7724ForwardCharacterIteratorC2Ev(ptr noundef nonnull align 8 dereferenceable(8) %0) unnamed_addr #1 align 2 {
  %2 = alloca ptr, align 8
  store ptr %0, ptr %2, align 8, !tbaa !3
  %3 = load ptr, ptr %2, align 8
  %4 = getelementptr inbounds i8, ptr %3, i64 0
  call void @llvm.memset.p0.i64(ptr align 8 %4, i8 0, i64 8, i1 false)
  call void @_ZN6icu_777UObjectC2Ev(ptr noundef nonnull align 8 dereferenceable(8) %3) #8
  store ptr getelementptr inbounds inrange(-16, 64) ({ [10 x ptr] }, ptr @_ZTVN6icu_7724ForwardCharacterIteratorE, i32 0, i32 0, i32 2), ptr %3, align 8, !tbaa !8
  ret void
}

; Function Attrs: mustprogress nounwind uwtable
define void @_ZN6icu_7717CharacterIteratorC2Eiiii(ptr noundef nonnull align 8 dereferenceable(24) %0, i32 noundef %1, i32 noundef %2, i32 noundef %3, i32 noundef %4) unnamed_addr #1 align 2 {
  %6 = alloca ptr, align 8
  %7 = alloca i32, align 4
  %8 = alloca i32, align 4
  %9 = alloca i32, align 4
  %10 = alloca i32, align 4
  store ptr %0, ptr %6, align 8, !tbaa !12
  store i32 %1, ptr %7, align 4, !tbaa !22
  store i32 %2, ptr %8, align 4, !tbaa !22
  store i32 %3, ptr %9, align 4, !tbaa !22
  store i32 %4, ptr %10, align 4, !tbaa !22
  %11 = load ptr, ptr %6, align 8
  call void @_ZN6icu_7724ForwardCharacterIteratorC2Ev(ptr noundef nonnull align 8 dereferenceable(8) %11)
  store ptr getelementptr inbounds inrange(-16, 216) ({ [29 x ptr] }, ptr @_ZTVN6icu_7717CharacterIteratorE, i32 0, i32 0, i32 2), ptr %11, align 8, !tbaa !8
  %12 = getelementptr inbounds nuw %"class.icu_77::CharacterIterator", ptr %11, i32 0, i32 1
  %13 = load i32, ptr %7, align 4, !tbaa !22
  store i32 %13, ptr %12, align 8, !tbaa !14
  %14 = getelementptr inbounds nuw %"class.icu_77::CharacterIterator", ptr %11, i32 0, i32 2
  %15 = load i32, ptr %10, align 4, !tbaa !22
  store i32 %15, ptr %14, align 4, !tbaa !19
  %16 = getelementptr inbounds nuw %"class.icu_77::CharacterIterator", ptr %11, i32 0, i32 3
  %17 = load i32, ptr %8, align 4, !tbaa !22
  store i32 %17, ptr %16, align 8, !tbaa !20
  %18 = getelementptr inbounds nuw %"class.icu_77::CharacterIterator", ptr %11, i32 0, i32 4
  %19 = load i32, ptr %9, align 4, !tbaa !22
  store i32 %19, ptr %18, align 4, !tbaa !21
  %20 = getelementptr inbounds nuw %"class.icu_77::CharacterIterator", ptr %11, i32 0, i32 1
  %21 = load i32, ptr %20, align 8, !tbaa !14
  %22 = icmp slt i32 %21, 0
  br i1 %22, label %23, label %25

23:                                               ; preds = %5
  %24 = getelementptr inbounds nuw %"class.icu_77::CharacterIterator", ptr %11, i32 0, i32 1
  store i32 0, ptr %24, align 8, !tbaa !14
  br label %25

25:                                               ; preds = %23, %5
  %26 = getelementptr inbounds nuw %"class.icu_77::CharacterIterator", ptr %11, i32 0, i32 3
  %27 = load i32, ptr %26, align 8, !tbaa !20
  %28 = icmp slt i32 %27, 0
  br i1 %28, label %29, label %31

29:                                               ; preds = %25
  %30 = getelementptr inbounds nuw %"class.icu_77::CharacterIterator", ptr %11, i32 0, i32 3
  store i32 0, ptr %30, align 8, !tbaa !20
  br label %42

31:                                               ; preds = %25
  %32 = getelementptr inbounds nuw %"class.icu_77::CharacterIterator", ptr %11, i32 0, i32 3
  %33 = load i32, ptr %32, align 8, !tbaa !20
  %34 = getelementptr inbounds nuw %"class.icu_77::CharacterIterator", ptr %11, i32 0, i32 1
  %35 = load i32, ptr %34, align 8, !tbaa !14
  %36 = icmp sgt i32 %33, %35
  br i1 %36, label %37, label %41

37:                                               ; preds = %31
  %38 = getelementptr inbounds nuw %"class.icu_77::CharacterIterator", ptr %11, i32 0, i32 1
  %39 = load i32, ptr %38, align 8, !tbaa !14
  %40 = getelementptr inbounds nuw %"class.icu_77::CharacterIterator", ptr %11, i32 0, i32 3
  store i32 %39, ptr %40, align 8, !tbaa !20
  br label %41

41:                                               ; preds = %37, %31
  br label %42

42:                                               ; preds = %41, %29
  %43 = getelementptr inbounds nuw %"class.icu_77::CharacterIterator", ptr %11, i32 0, i32 4
  %44 = load i32, ptr %43, align 4, !tbaa !21
  %45 = getelementptr inbounds nuw %"class.icu_77::CharacterIterator", ptr %11, i32 0, i32 3
  %46 = load i32, ptr %45, align 8, !tbaa !20
  %47 = icmp slt i32 %44, %46
  br i1 %47, label %48, label %52

48:                                               ; preds = %42
  %49 = getelementptr inbounds nuw %"class.icu_77::CharacterIterator", ptr %11, i32 0, i32 3
  %50 = load i32, ptr %49, align 8, !tbaa !20
  %51 = getelementptr inbounds nuw %"class.icu_77::CharacterIterator", ptr %11, i32 0, i32 4
  store i32 %50, ptr %51, align 4, !tbaa !21
  br label %63

52:                                               ; preds = %42
  %53 = getelementptr inbounds nuw %"class.icu_77::CharacterIterator", ptr %11, i32 0, i32 4
  %54 = load i32, ptr %53, align 4, !tbaa !21
  %55 = getelementptr inbounds nuw %"class.icu_77::CharacterIterator", ptr %11, i32 0, i32 1
  %56 = load i32, ptr %55, align 8, !tbaa !14
  %57 = icmp sgt i32 %54, %56
  br i1 %57, label %58, label %62

58:                                               ; preds = %52
  %59 = getelementptr inbounds nuw %"class.icu_77::CharacterIterator", ptr %11, i32 0, i32 1
  %60 = load i32, ptr %59, align 8, !tbaa !14
  %61 = getelementptr inbounds nuw %"class.icu_77::CharacterIterator", ptr %11, i32 0, i32 4
  store i32 %60, ptr %61, align 4, !tbaa !21
  br label %62

62:                                               ; preds = %58, %52
  br label %63

63:                                               ; preds = %62, %48
  %64 = getelementptr inbounds nuw %"class.icu_77::CharacterIterator", ptr %11, i32 0, i32 2
  %65 = load i32, ptr %64, align 4, !tbaa !19
  %66 = getelementptr inbounds nuw %"class.icu_77::CharacterIterator", ptr %11, i32 0, i32 3
  %67 = load i32, ptr %66, align 8, !tbaa !20
  %68 = icmp slt i32 %65, %67
  br i1 %68, label %69, label %73

69:                                               ; preds = %63
  %70 = getelementptr inbounds nuw %"class.icu_77::CharacterIterator", ptr %11, i32 0, i32 3
  %71 = load i32, ptr %70, align 8, !tbaa !20
  %72 = getelementptr inbounds nuw %"class.icu_77::CharacterIterator", ptr %11, i32 0, i32 2
  store i32 %71, ptr %72, align 4, !tbaa !19
  br label %84

73:                                               ; preds = %63
  %74 = getelementptr inbounds nuw %"class.icu_77::CharacterIterator", ptr %11, i32 0, i32 2
  %75 = load i32, ptr %74, align 4, !tbaa !19
  %76 = getelementptr inbounds nuw %"class.icu_77::CharacterIterator", ptr %11, i32 0, i32 4
  %77 = load i32, ptr %76, align 4, !tbaa !21
  %78 = icmp sgt i32 %75, %77
  br i1 %78, label %79, label %83

79:                                               ; preds = %73
  %80 = getelementptr inbounds nuw %"class.icu_77::CharacterIterator", ptr %11, i32 0, i32 4
  %81 = load i32, ptr %80, align 4, !tbaa !21
  %82 = getelementptr inbounds nuw %"class.icu_77::CharacterIterator", ptr %11, i32 0, i32 2
  store i32 %81, ptr %82, align 4, !tbaa !19
  br label %83

83:                                               ; preds = %79, %73
  br label %84

84:                                               ; preds = %83, %69
  ret void
}