; Function Attrs: mustprogress nofree norecurse nosync nounwind willreturn memory(argmem: write) uwtable
define void @_ZN6icu_7717CharacterIteratorC2Eiiii(ptr noundef nonnull writeonly align 8 captures(none) dereferenceable(24) initializes((0, 24)) %0, i32 noundef %1, i32 noundef %2, i32 noundef %3, i32 noundef %4) unnamed_addr #4 align 2 {
  store ptr getelementptr inbounds nuw inrange(-16, 216) (i8, ptr @_ZTVN6icu_7717CharacterIteratorE, i64 16), ptr %0, align 8, !tbaa !3
  %6 = getelementptr inbounds nuw i8, ptr %0, i64 8
  store i32 %1, ptr %6, align 8, !tbaa !6
  %7 = getelementptr inbounds nuw i8, ptr %0, i64 12
  store i32 %4, ptr %7, align 4, !tbaa !12
  %8 = getelementptr inbounds nuw i8, ptr %0, i64 16
  store i32 %2, ptr %8, align 8, !tbaa !13
  %9 = getelementptr inbounds nuw i8, ptr %0, i64 20
  store i32 %3, ptr %9, align 4, !tbaa !14
  %10 = icmp slt i32 %1, 0
  br i1 %10, label %11, label %12

11:                                               ; preds = %5
  store i32 0, ptr %6, align 8, !tbaa !6
  br label %12

12:                                               ; preds = %11, %5
  %13 = phi i32 [ 0, %11 ], [ %1, %5 ]
  %14 = icmp slt i32 %2, 0
  br i1 %14, label %.sink.split, label %15

15:                                               ; preds = %12
  %16 = icmp samesign ugt i32 %2, %13
  br i1 %16, label %.sink.split, label %17

.sink.split:                                      ; preds = %15, %12
  %.sink = phi i32 [ 0, %12 ], [ %13, %15 ]
  store i32 %.sink, ptr %8, align 8, !tbaa !13
  br label %17

17:                                               ; preds = %.sink.split, %15
  %18 = phi i32 [ %2, %15 ], [ %.sink, %.sink.split ]
  %19 = icmp slt i32 %3, %18
  br i1 %19, label %.sink.split11, label %20

20:                                               ; preds = %17
  %21 = icmp samesign ugt i32 %3, %13
  br i1 %21, label %.sink.split11, label %22

.sink.split11:                                    ; preds = %20, %17
  %.sink13 = phi i32 [ %18, %17 ], [ %13, %20 ]
  store i32 %.sink13, ptr %9, align 4, !tbaa !14
  br label %22

22:                                               ; preds = %.sink.split11, %20
  %23 = phi i32 [ %3, %20 ], [ %.sink13, %.sink.split11 ]
  %24 = icmp slt i32 %4, %18
  br i1 %24, label %.sink.split14, label %25

25:                                               ; preds = %22
  %26 = icmp samesign ugt i32 %4, %23
  br i1 %26, label %.sink.split14, label %27

.sink.split14:                                    ; preds = %25, %22
  %.sink15 = phi i32 [ %18, %22 ], [ %23, %25 ]
  store i32 %.sink15, ptr %7, align 4, !tbaa !12
  br label %27

27:                                               ; preds = %.sink.split14, %25
  ret void
}